#include <math.h>
#include <stdio.h>
#include <stdlib.h>
#include <string.h>

int main()
{
int n,i;
scanf("%d",&n);
for(i=0;i<=n;i++)
{
     char s[500],t[500];
     int j=0,l,n;
	 gets(s);
	 for(j=0,l=0;s[j]!='\0';j++)
	 {
	        if(s[j]=='A')
			{
			   t[j]='T';
			}
			else if(s[j]=='T')
			{
			   t[j]='A';
			}
			else if(s[j]=='C')
			{
			   t[j]='G';
			}
			else if(s[j]=='G')
			{
			   t[j]='C';
			}
			l++;
	 }
	 for(n=0;n<l-1;n++)
	 {
	 	printf("%c",t[n]);
	 }
	printf("%c\n",t[l-1]);
}
return 0;

}